; Function Attrs: mustprogress uwtable
define void @_ZN27ModulePreferencesScrollArea11resizeEventEP12QResizeEvent(ptr noundef nonnull align 8 dereferenceable(56) %0, ptr noundef %1) unnamed_addr #0 align 2 {
  tail call void @_ZN11QScrollArea11resizeEventEP12QResizeEvent(ptr noundef nonnull align 8 dereferenceable(40) %0, ptr noundef %1)
  %3 = tail call noundef ptr @_ZNK19QAbstractScrollArea17verticalScrollBarEv(ptr noundef nonnull align 8 dereferenceable(40) %0)
  %4 = getelementptr inbounds i8, ptr %3, i64 32
  %5 = load ptr, ptr %4, align 8
  %6 = getelementptr inbounds i8, ptr %5, i64 8
  %7 = load i32, ptr %6, align 8
  %8 = and i32 %7, 32768
  %.not = icmp eq i32 %8, 0
  %. = select i1 %.not, i32 0, i32 6
  tail call void @_ZN6QFrame13setFrameStyleEi(ptr noundef nonnull align 8 dereferenceable(40) %0, i32 noundef %.)
  ret void
}